
_main:

;MyProject.c,20 :: 		void main() {
;MyProject.c,22 :: 		Lcd_Init();
	CALL       _Lcd_Init+0
;MyProject.c,23 :: 		Lcd_Cmd(_LCD_CURSOR_OFF);
	MOVLW      12
	MOVWF      FARG_Lcd_Cmd_out_char+0
	CALL       _Lcd_Cmd+0
;MyProject.c,24 :: 		Lcd_Cmd(_LCD_CLEAR);
	MOVLW      1
	MOVWF      FARG_Lcd_Cmd_out_char+0
	CALL       _Lcd_Cmd+0
;MyProject.c,25 :: 		C1ON_bit = 0;
	BCF        C1ON_bit+0, BitPos(C1ON_bit+0)
;MyProject.c,26 :: 		C2ON_bit = 0;
	BCF        C2ON_bit+0, BitPos(C2ON_bit+0)
;MyProject.c,27 :: 		UART1_Init(9600);
	MOVLW      51
	MOVWF      SPBRG+0
	BSF        TXSTA+0, 2
	CALL       _UART1_Init+0
;MyProject.c,28 :: 		Delay_ms(5);
	MOVLW      13
	MOVWF      R12+0
	MOVLW      251
	MOVWF      R13+0
L_main0:
	DECFSZ     R13+0, 1
	GOTO       L_main0
	DECFSZ     R12+0, 1
	GOTO       L_main0
	NOP
	NOP
;MyProject.c,29 :: 		numUsers=0;
	CLRF       _numUsers+0
	CLRF       _numUsers+1
;MyProject.c,30 :: 		j=0;
	CLRF       _j+0
	CLRF       _j+1
;MyProject.c,31 :: 		while(1)
L_main1:
;MyProject.c,33 :: 		Lcd_Out(1,1,string);
	MOVLW      1
	MOVWF      FARG_Lcd_Out_row+0
	MOVLW      1
	MOVWF      FARG_Lcd_Out_column+0
	MOVLW      _string+0
	MOVWF      FARG_Lcd_Out_text+0
	CALL       _Lcd_Out+0
;MyProject.c,34 :: 		ReadFromUART();
	CALL       _ReadFromUART+0
;MyProject.c,36 :: 		Lcd_Cmd(_LCD_CLEAR);
	MOVLW      1
	MOVWF      FARG_Lcd_Cmd_out_char+0
	CALL       _Lcd_Cmd+0
;MyProject.c,37 :: 		Lcd_Out(1,1,string);
	MOVLW      1
	MOVWF      FARG_Lcd_Out_row+0
	MOVLW      1
	MOVWF      FARG_Lcd_Out_column+0
	MOVLW      _string+0
	MOVWF      FARG_Lcd_Out_text+0
	CALL       _Lcd_Out+0
;MyProject.c,39 :: 		if(strcmp(strstr(string,"ADD"),"ADD")==0)
	MOVLW      _string+0
	MOVWF      FARG_strstr_s1+0
	MOVLW      ?lstr1_MyProject+0
	MOVWF      FARG_strstr_s2+0
	CALL       _strstr+0
	MOVF       R0+0, 0
	MOVWF      FARG_strcmp_s1+0
	MOVLW      ?lstr2_MyProject+0
	MOVWF      FARG_strcmp_s2+0
	CALL       _strcmp+0
	MOVLW      0
	XORWF      R0+1, 0
	BTFSS      STATUS+0, 2
	GOTO       L__main25
	MOVLW      0
	XORWF      R0+0, 0
L__main25:
	BTFSS      STATUS+0, 2
	GOTO       L_main3
;MyProject.c,41 :: 		Lcd_Out(2,1,strstr(string,"ADD"));
	MOVLW      _string+0
	MOVWF      FARG_strstr_s1+0
	MOVLW      ?lstr3_MyProject+0
	MOVWF      FARG_strstr_s2+0
	CALL       _strstr+0
	MOVF       R0+0, 0
	MOVWF      FARG_Lcd_Out_text+0
	MOVLW      2
	MOVWF      FARG_Lcd_Out_row+0
	MOVLW      1
	MOVWF      FARG_Lcd_Out_column+0
	CALL       _Lcd_Out+0
;MyProject.c,42 :: 		while(strcmp(strstr(string,"START"),"START")!=0)
L_main4:
	MOVLW      _string+0
	MOVWF      FARG_strstr_s1+0
	MOVLW      ?lstr4_MyProject+0
	MOVWF      FARG_strstr_s2+0
	CALL       _strstr+0
	MOVF       R0+0, 0
	MOVWF      FARG_strcmp_s1+0
	MOVLW      ?lstr5_MyProject+0
	MOVWF      FARG_strcmp_s2+0
	CALL       _strcmp+0
	MOVLW      0
	XORWF      R0+1, 0
	BTFSS      STATUS+0, 2
	GOTO       L__main26
	MOVLW      0
	XORWF      R0+0, 0
L__main26:
	BTFSC      STATUS+0, 2
	GOTO       L_main5
;MyProject.c,44 :: 		ReadFromUART();
	CALL       _ReadFromUART+0
;MyProject.c,46 :: 		if(strcmp(strstr(string,"START"),"START")==0)
	MOVLW      _string+0
	MOVWF      FARG_strstr_s1+0
	MOVLW      ?lstr6_MyProject+0
	MOVWF      FARG_strstr_s2+0
	CALL       _strstr+0
	MOVF       R0+0, 0
	MOVWF      FARG_strcmp_s1+0
	MOVLW      ?lstr7_MyProject+0
	MOVWF      FARG_strcmp_s2+0
	CALL       _strcmp+0
	MOVLW      0
	XORWF      R0+1, 0
	BTFSS      STATUS+0, 2
	GOTO       L__main27
	MOVLW      0
	XORWF      R0+0, 0
L__main27:
	BTFSS      STATUS+0, 2
	GOTO       L_main6
;MyProject.c,49 :: 		Lcd_Cmd(_LCD_CLEAR);
	MOVLW      1
	MOVWF      FARG_Lcd_Cmd_out_char+0
	CALL       _Lcd_Cmd+0
;MyProject.c,50 :: 		Lcd_Out(2,1,strstr(string,"START"));
	MOVLW      _string+0
	MOVWF      FARG_strstr_s1+0
	MOVLW      ?lstr8_MyProject+0
	MOVWF      FARG_strstr_s2+0
	CALL       _strstr+0
	MOVF       R0+0, 0
	MOVWF      FARG_Lcd_Out_text+0
	MOVLW      2
	MOVWF      FARG_Lcd_Out_row+0
	MOVLW      1
	MOVWF      FARG_Lcd_Out_column+0
	CALL       _Lcd_Out+0
;MyProject.c,51 :: 		memset(string,0,sizeof(string));
	MOVLW      _string+0
	MOVWF      FARG_memset_p1+0
	CLRF       FARG_memset_character+0
	MOVLW      16
	MOVWF      FARG_memset_n+0
	MOVLW      0
	MOVWF      FARG_memset_n+1
	CALL       _memset+0
;MyProject.c,52 :: 		Lcd_Cmd(_LCD_CLEAR);
	MOVLW      1
	MOVWF      FARG_Lcd_Cmd_out_char+0
	CALL       _Lcd_Cmd+0
;MyProject.c,53 :: 		ReadFromUART();
	CALL       _ReadFromUART+0
;MyProject.c,55 :: 		for(j=0; j<=15; j++)
	CLRF       _j+0
	CLRF       _j+1
L_main7:
	MOVLW      128
	MOVWF      R0+0
	MOVLW      128
	XORWF      _j+1, 0
	SUBWF      R0+0, 0
	BTFSS      STATUS+0, 2
	GOTO       L__main28
	MOVF       _j+0, 0
	SUBLW      15
L__main28:
	BTFSS      STATUS+0, 0
	GOTO       L_main8
;MyProject.c,57 :: 		EEPROM_Write(0x10 + j,string[j]);
	MOVF       _j+0, 0
	ADDLW      16
	MOVWF      FARG_EEPROM_Write_Address+0
	MOVF       _j+0, 0
	ADDLW      _string+0
	MOVWF      FSR
	MOVF       INDF+0, 0
	MOVWF      FARG_EEPROM_Write_data_+0
	CALL       _EEPROM_Write+0
;MyProject.c,55 :: 		for(j=0; j<=15; j++)
	INCF       _j+0, 1
	BTFSC      STATUS+0, 2
	INCF       _j+1, 1
;MyProject.c,58 :: 		}
	GOTO       L_main7
L_main8:
;MyProject.c,59 :: 		numUsers++;
	INCF       _numUsers+0, 1
	BTFSC      STATUS+0, 2
	INCF       _numUsers+1, 1
;MyProject.c,60 :: 		EEPROM_Write(0x00,numUsers);
	CLRF       FARG_EEPROM_Write_Address+0
	MOVF       _numUsers+0, 0
	MOVWF      FARG_EEPROM_Write_data_+0
	CALL       _EEPROM_Write+0
;MyProject.c,67 :: 		break;
	GOTO       L_main5
;MyProject.c,68 :: 		}
L_main6:
;MyProject.c,72 :: 		}
	GOTO       L_main4
L_main5:
;MyProject.c,75 :: 		}
L_main3:
;MyProject.c,77 :: 		if(strcmp(strstr(string,"ERASE"),"ERASE")==0){
	MOVLW      _string+0
	MOVWF      FARG_strstr_s1+0
	MOVLW      ?lstr9_MyProject+0
	MOVWF      FARG_strstr_s2+0
	CALL       _strstr+0
	MOVF       R0+0, 0
	MOVWF      FARG_strcmp_s1+0
	MOVLW      ?lstr10_MyProject+0
	MOVWF      FARG_strcmp_s2+0
	CALL       _strcmp+0
	MOVLW      0
	XORWF      R0+1, 0
	BTFSS      STATUS+0, 2
	GOTO       L__main29
	MOVLW      0
	XORWF      R0+0, 0
L__main29:
	BTFSS      STATUS+0, 2
	GOTO       L_main10
;MyProject.c,78 :: 		Lcd_Out(2,1,strstr(string,"ERASE"));
	MOVLW      _string+0
	MOVWF      FARG_strstr_s1+0
	MOVLW      ?lstr11_MyProject+0
	MOVWF      FARG_strstr_s2+0
	CALL       _strstr+0
	MOVF       R0+0, 0
	MOVWF      FARG_Lcd_Out_text+0
	MOVLW      2
	MOVWF      FARG_Lcd_Out_row+0
	MOVLW      1
	MOVWF      FARG_Lcd_Out_column+0
	CALL       _Lcd_Out+0
;MyProject.c,79 :: 		while(strcmp(strstr(string,"START"),"START")!=0){
L_main11:
	MOVLW      _string+0
	MOVWF      FARG_strstr_s1+0
	MOVLW      ?lstr12_MyProject+0
	MOVWF      FARG_strstr_s2+0
	CALL       _strstr+0
	MOVF       R0+0, 0
	MOVWF      FARG_strcmp_s1+0
	MOVLW      ?lstr13_MyProject+0
	MOVWF      FARG_strcmp_s2+0
	CALL       _strcmp+0
	MOVLW      0
	XORWF      R0+1, 0
	BTFSS      STATUS+0, 2
	GOTO       L__main30
	MOVLW      0
	XORWF      R0+0, 0
L__main30:
	BTFSC      STATUS+0, 2
	GOTO       L_main12
;MyProject.c,80 :: 		ReadFromUART();
	CALL       _ReadFromUART+0
;MyProject.c,82 :: 		if(strcmp(strstr(string,"START"),"START")==0){
	MOVLW      _string+0
	MOVWF      FARG_strstr_s1+0
	MOVLW      ?lstr14_MyProject+0
	MOVWF      FARG_strstr_s2+0
	CALL       _strstr+0
	MOVF       R0+0, 0
	MOVWF      FARG_strcmp_s1+0
	MOVLW      ?lstr15_MyProject+0
	MOVWF      FARG_strcmp_s2+0
	CALL       _strcmp+0
	MOVLW      0
	XORWF      R0+1, 0
	BTFSS      STATUS+0, 2
	GOTO       L__main31
	MOVLW      0
	XORWF      R0+0, 0
L__main31:
	BTFSS      STATUS+0, 2
	GOTO       L_main13
;MyProject.c,84 :: 		Lcd_Cmd(_LCD_CLEAR);
	MOVLW      1
	MOVWF      FARG_Lcd_Cmd_out_char+0
	CALL       _Lcd_Cmd+0
;MyProject.c,85 :: 		Lcd_Out(2,1,strstr(string,"START"));
	MOVLW      _string+0
	MOVWF      FARG_strstr_s1+0
	MOVLW      ?lstr16_MyProject+0
	MOVWF      FARG_strstr_s2+0
	CALL       _strstr+0
	MOVF       R0+0, 0
	MOVWF      FARG_Lcd_Out_text+0
	MOVLW      2
	MOVWF      FARG_Lcd_Out_row+0
	MOVLW      1
	MOVWF      FARG_Lcd_Out_column+0
	CALL       _Lcd_Out+0
;MyProject.c,86 :: 		}
L_main13:
;MyProject.c,87 :: 		}
	GOTO       L_main11
L_main12:
;MyProject.c,88 :: 		}
L_main10:
;MyProject.c,89 :: 		if(strcmp(strstr(string,"END"),"END")==0){
	MOVLW      _string+0
	MOVWF      FARG_strstr_s1+0
	MOVLW      ?lstr17_MyProject+0
	MOVWF      FARG_strstr_s2+0
	CALL       _strstr+0
	MOVF       R0+0, 0
	MOVWF      FARG_strcmp_s1+0
	MOVLW      ?lstr18_MyProject+0
	MOVWF      FARG_strcmp_s2+0
	CALL       _strcmp+0
	MOVLW      0
	XORWF      R0+1, 0
	BTFSS      STATUS+0, 2
	GOTO       L__main32
	MOVLW      0
	XORWF      R0+0, 0
L__main32:
	BTFSS      STATUS+0, 2
	GOTO       L_main14
;MyProject.c,90 :: 		Lcd_Out(2,1,strstr(string,"END"));
	MOVLW      _string+0
	MOVWF      FARG_strstr_s1+0
	MOVLW      ?lstr19_MyProject+0
	MOVWF      FARG_strstr_s2+0
	CALL       _strstr+0
	MOVF       R0+0, 0
	MOVWF      FARG_Lcd_Out_text+0
	MOVLW      2
	MOVWF      FARG_Lcd_Out_row+0
	MOVLW      1
	MOVWF      FARG_Lcd_Out_column+0
	CALL       _Lcd_Out+0
;MyProject.c,92 :: 		}
L_main14:
;MyProject.c,93 :: 		memset(string,0,sizeof(string));
	MOVLW      _string+0
	MOVWF      FARG_memset_p1+0
	CLRF       FARG_memset_character+0
	MOVLW      16
	MOVWF      FARG_memset_n+0
	MOVLW      0
	MOVWF      FARG_memset_n+1
	CALL       _memset+0
;MyProject.c,94 :: 		}
	GOTO       L_main1
;MyProject.c,97 :: 		}
L_end_main:
	GOTO       $+0
; end of _main

_ReadFromUART:

;MyProject.c,98 :: 		void ReadFromUART(){
;MyProject.c,99 :: 		i=0;
	CLRF       _i+0
	CLRF       _i+1
;MyProject.c,100 :: 		while(1)         {
L_ReadFromUART15:
;MyProject.c,101 :: 		Delay_ms(5);
	MOVLW      13
	MOVWF      R12+0
	MOVLW      251
	MOVWF      R13+0
L_ReadFromUART17:
	DECFSZ     R13+0, 1
	GOTO       L_ReadFromUART17
	DECFSZ     R12+0, 1
	GOTO       L_ReadFromUART17
	NOP
	NOP
;MyProject.c,102 :: 		if (UART1_Data_Ready())
	CALL       _UART1_Data_Ready+0
	MOVF       R0+0, 0
	BTFSC      STATUS+0, 2
	GOTO       L_ReadFromUART18
;MyProject.c,104 :: 		uart_rd = UART1_Read();
	CALL       _UART1_Read+0
	MOVF       R0+0, 0
	MOVWF      _uart_rd+0
;MyProject.c,105 :: 		string[i]=uart_rd;
	MOVF       _i+0, 0
	ADDLW      _string+0
	MOVWF      FSR
	MOVF       R0+0, 0
	MOVWF      INDF+0
;MyProject.c,106 :: 		i++;
	INCF       _i+0, 1
	BTFSC      STATUS+0, 2
	INCF       _i+1, 1
;MyProject.c,107 :: 		}
L_ReadFromUART18:
;MyProject.c,108 :: 		Delay_ms(5);
	MOVLW      13
	MOVWF      R12+0
	MOVLW      251
	MOVWF      R13+0
L_ReadFromUART19:
	DECFSZ     R13+0, 1
	GOTO       L_ReadFromUART19
	DECFSZ     R12+0, 1
	GOTO       L_ReadFromUART19
	NOP
	NOP
;MyProject.c,109 :: 		if (!UART1_Data_Ready()&&i!=0)
	CALL       _UART1_Data_Ready+0
	MOVF       R0+0, 0
	BTFSS      STATUS+0, 2
	GOTO       L_ReadFromUART22
	MOVLW      0
	XORWF      _i+1, 0
	BTFSS      STATUS+0, 2
	GOTO       L__ReadFromUART34
	MOVLW      0
	XORWF      _i+0, 0
L__ReadFromUART34:
	BTFSC      STATUS+0, 2
	GOTO       L_ReadFromUART22
L__ReadFromUART23:
;MyProject.c,112 :: 		break;
	GOTO       L_ReadFromUART16
;MyProject.c,115 :: 		}
L_ReadFromUART22:
;MyProject.c,116 :: 		}
	GOTO       L_ReadFromUART15
L_ReadFromUART16:
;MyProject.c,117 :: 		}
L_end_ReadFromUART:
	RETURN
; end of _ReadFromUART
