
_main:

;MyProject.c,38 :: 		void main() {
;MyProject.c,39 :: 		init();
	CALL       _init+0
;MyProject.c,40 :: 		while(1)
L_main0:
;MyProject.c,42 :: 		Lcd_Out(1,1,string);
	MOVLW      1
	MOVWF      FARG_Lcd_Out_row+0
	MOVLW      1
	MOVWF      FARG_Lcd_Out_column+0
	MOVLW      _string+0
	MOVWF      FARG_Lcd_Out_text+0
	CALL       _Lcd_Out+0
;MyProject.c,43 :: 		ReadFromUART();
	CALL       _ReadFromUART+0
;MyProject.c,45 :: 		Lcd_Cmd(_LCD_CLEAR);
	MOVLW      1
	MOVWF      FARG_Lcd_Cmd_out_char+0
	CALL       _Lcd_Cmd+0
;MyProject.c,46 :: 		Lcd_Out(1,1,string);
	MOVLW      1
	MOVWF      FARG_Lcd_Out_row+0
	MOVLW      1
	MOVWF      FARG_Lcd_Out_column+0
	MOVLW      _string+0
	MOVWF      FARG_Lcd_Out_text+0
	CALL       _Lcd_Out+0
;MyProject.c,47 :: 		Delay_ms(1);
	MOVLW      3
	MOVWF      R12+0
	MOVLW      151
	MOVWF      R13+0
L_main2:
	DECFSZ     R13+0, 1
	GOTO       L_main2
	DECFSZ     R12+0, 1
	GOTO       L_main2
	NOP
	NOP
;MyProject.c,48 :: 		ADDOption();
	CALL       _ADDOption+0
;MyProject.c,49 :: 		EraseOption();
	CALL       _EraseOption+0
;MyProject.c,51 :: 		if(strcmp(strstr(string,"END"),"END")==0){
	MOVLW      _string+0
	MOVWF      FARG_strstr_s1+0
	MOVLW      ?lstr1_MyProject+0
	MOVWF      FARG_strstr_s2+0
	CALL       _strstr+0
	MOVF       R0+0, 0
	MOVWF      FARG_strcmp_s1+0
	MOVLW      ?lstr2_MyProject+0
	MOVWF      FARG_strcmp_s2+0
	CALL       _strcmp+0
	MOVLW      0
	XORWF      R0+1, 0
	BTFSS      STATUS+0, 2
	GOTO       L__main70
	MOVLW      0
	XORWF      R0+0, 0
L__main70:
	BTFSS      STATUS+0, 2
	GOTO       L_main3
;MyProject.c,52 :: 		Lcd_Out(2,1,strstr(string,"END"));
	MOVLW      _string+0
	MOVWF      FARG_strstr_s1+0
	MOVLW      ?lstr3_MyProject+0
	MOVWF      FARG_strstr_s2+0
	CALL       _strstr+0
	MOVF       R0+0, 0
	MOVWF      FARG_Lcd_Out_text+0
	MOVLW      2
	MOVWF      FARG_Lcd_Out_row+0
	MOVLW      1
	MOVWF      FARG_Lcd_Out_column+0
	CALL       _Lcd_Out+0
;MyProject.c,54 :: 		}
L_main3:
;MyProject.c,55 :: 		memset(string,0,sizeof(string));
	MOVLW      _string+0
	MOVWF      FARG_memset_p1+0
	CLRF       FARG_memset_character+0
	MOVLW      16
	MOVWF      FARG_memset_n+0
	MOVLW      0
	MOVWF      FARG_memset_n+1
	CALL       _memset+0
;MyProject.c,56 :: 		}
	GOTO       L_main0
;MyProject.c,59 :: 		}
L_end_main:
	GOTO       $+0
; end of _main

_ValidateInput:

;MyProject.c,60 :: 		int ValidateInput()
;MyProject.c,62 :: 		if(strcmp(strstr(string," ")," ")==0)
	MOVLW      _string+0
	MOVWF      FARG_strstr_s1+0
	MOVLW      ?lstr4_MyProject+0
	MOVWF      FARG_strstr_s2+0
	CALL       _strstr+0
	MOVF       R0+0, 0
	MOVWF      FARG_strcmp_s1+0
	MOVLW      ?lstr5_MyProject+0
	MOVWF      FARG_strcmp_s2+0
	CALL       _strcmp+0
	MOVLW      0
	XORWF      R0+1, 0
	BTFSS      STATUS+0, 2
	GOTO       L__ValidateInput72
	MOVLW      0
	XORWF      R0+0, 0
L__ValidateInput72:
	BTFSS      STATUS+0, 2
	GOTO       L_ValidateInput4
;MyProject.c,66 :: 		counter=0;
	CLRF       _counter+0
	CLRF       _counter+1
;MyProject.c,67 :: 		iterator=0;
	CLRF       _iterator+0
	CLRF       _iterator+1
;MyProject.c,68 :: 		locker=1;
	MOVLW      1
	MOVWF      _locker+0
	MOVLW      0
	MOVWF      _locker+1
;MyProject.c,69 :: 		Lcd_Out(1,1,"DEBUG");
	MOVLW      1
	MOVWF      FARG_Lcd_Out_row+0
	MOVLW      1
	MOVWF      FARG_Lcd_Out_column+0
	MOVLW      ?lstr6_MyProject+0
	MOVWF      FARG_Lcd_Out_text+0
	CALL       _Lcd_Out+0
;MyProject.c,70 :: 		for(j=0;j<strlen(string);j++){
	CLRF       _j+0
	CLRF       _j+1
L_ValidateInput5:
	MOVLW      _string+0
	MOVWF      FARG_strlen_s+0
	CALL       _strlen+0
	MOVLW      128
	XORWF      _j+1, 0
	MOVWF      R2+0
	MOVLW      128
	XORWF      R0+1, 0
	SUBWF      R2+0, 0
	BTFSS      STATUS+0, 2
	GOTO       L__ValidateInput73
	MOVF       R0+0, 0
	SUBWF      _j+0, 0
L__ValidateInput73:
	BTFSC      STATUS+0, 0
	GOTO       L_ValidateInput6
;MyProject.c,71 :: 		if(isdigit(string[j])&&locker==1){
	MOVF       _j+0, 0
	ADDLW      _string+0
	MOVWF      FSR
	MOVF       INDF+0, 0
	MOVWF      FARG_isdigit_character+0
	CALL       _isdigit+0
	MOVF       R0+0, 0
	BTFSC      STATUS+0, 2
	GOTO       L_ValidateInput10
	MOVLW      0
	XORWF      _locker+1, 0
	BTFSS      STATUS+0, 2
	GOTO       L__ValidateInput74
	MOVLW      1
	XORWF      _locker+0, 0
L__ValidateInput74:
	BTFSS      STATUS+0, 2
	GOTO       L_ValidateInput10
L__ValidateInput67:
;MyProject.c,72 :: 		counter++;
	INCF       _counter+0, 1
	BTFSC      STATUS+0, 2
	INCF       _counter+1, 1
;MyProject.c,73 :: 		Lcd_Out(1,1,"DEBUG2");
	MOVLW      1
	MOVWF      FARG_Lcd_Out_row+0
	MOVLW      1
	MOVWF      FARG_Lcd_Out_column+0
	MOVLW      ?lstr7_MyProject+0
	MOVWF      FARG_Lcd_Out_text+0
	CALL       _Lcd_Out+0
;MyProject.c,74 :: 		}else if(isspace(string[j])&&counter==j){
	GOTO       L_ValidateInput11
L_ValidateInput10:
	MOVF       _j+0, 0
	ADDLW      _string+0
	MOVWF      FSR
	MOVF       INDF+0, 0
	MOVWF      FARG_isspace_character+0
	CALL       _isspace+0
	MOVF       R0+0, 0
	BTFSC      STATUS+0, 2
	GOTO       L_ValidateInput14
	MOVF       _counter+1, 0
	XORWF      _j+1, 0
	BTFSS      STATUS+0, 2
	GOTO       L__ValidateInput75
	MOVF       _j+0, 0
	XORWF      _counter+0, 0
L__ValidateInput75:
	BTFSS      STATUS+0, 2
	GOTO       L_ValidateInput14
L__ValidateInput66:
;MyProject.c,75 :: 		locker=0;
	CLRF       _locker+0
	CLRF       _locker+1
;MyProject.c,76 :: 		Lcd_Out(1,1,"DEBUG3");
	MOVLW      1
	MOVWF      FARG_Lcd_Out_row+0
	MOVLW      1
	MOVWF      FARG_Lcd_Out_column+0
	MOVLW      ?lstr8_MyProject+0
	MOVWF      FARG_Lcd_Out_text+0
	CALL       _Lcd_Out+0
;MyProject.c,79 :: 		}else{
	GOTO       L_ValidateInput15
L_ValidateInput14:
;MyProject.c,80 :: 		Lcd_Out(1,1,"DEBUG4");
	MOVLW      1
	MOVWF      FARG_Lcd_Out_row+0
	MOVLW      1
	MOVWF      FARG_Lcd_Out_column+0
	MOVLW      ?lstr9_MyProject+0
	MOVWF      FARG_Lcd_Out_text+0
	CALL       _Lcd_Out+0
;MyProject.c,81 :: 		return 0;
	CLRF       R0+0
	CLRF       R0+1
	GOTO       L_end_ValidateInput
;MyProject.c,82 :: 		}
L_ValidateInput15:
L_ValidateInput11:
;MyProject.c,83 :: 		if(locker==0){
	MOVLW      0
	XORWF      _locker+1, 0
	BTFSS      STATUS+0, 2
	GOTO       L__ValidateInput76
	MOVLW      0
	XORWF      _locker+0, 0
L__ValidateInput76:
	BTFSS      STATUS+0, 2
	GOTO       L_ValidateInput16
;MyProject.c,84 :: 		if(isdigit(string[j])){
	MOVF       _j+0, 0
	ADDLW      _string+0
	MOVWF      FSR
	MOVF       INDF+0, 0
	MOVWF      FARG_isdigit_character+0
	CALL       _isdigit+0
	MOVF       R0+0, 0
	BTFSC      STATUS+0, 2
	GOTO       L_ValidateInput17
;MyProject.c,85 :: 		Lcd_Out(1,1,"DEBUG");
	MOVLW      1
	MOVWF      FARG_Lcd_Out_row+0
	MOVLW      1
	MOVWF      FARG_Lcd_Out_column+0
	MOVLW      ?lstr10_MyProject+0
	MOVWF      FARG_Lcd_Out_text+0
	CALL       _Lcd_Out+0
;MyProject.c,86 :: 		userCode[iterator]=string[j];
	MOVF       _iterator+0, 0
	ADDWF      _userCode+0, 0
	MOVWF      R1+0
	MOVF       _j+0, 0
	ADDLW      _string+0
	MOVWF      FSR
	MOVF       INDF+0, 0
	MOVWF      R0+0
	MOVF       R1+0, 0
	MOVWF      FSR
	MOVF       R0+0, 0
	MOVWF      INDF+0
;MyProject.c,87 :: 		iterator++;
	INCF       _iterator+0, 1
	BTFSC      STATUS+0, 2
	INCF       _iterator+1, 1
;MyProject.c,89 :: 		} else{
	GOTO       L_ValidateInput18
L_ValidateInput17:
;MyProject.c,90 :: 		return 0;
	CLRF       R0+0
	CLRF       R0+1
	GOTO       L_end_ValidateInput
;MyProject.c,91 :: 		}
L_ValidateInput18:
;MyProject.c,92 :: 		}
L_ValidateInput16:
;MyProject.c,70 :: 		for(j=0;j<strlen(string);j++){
	INCF       _j+0, 1
	BTFSC      STATUS+0, 2
	INCF       _j+1, 1
;MyProject.c,95 :: 		}
	GOTO       L_ValidateInput5
L_ValidateInput6:
;MyProject.c,96 :: 		if(atoi(userCode)>1023&&atoi(userCode)!=0){
	MOVF       _userCode+0, 0
	MOVWF      FARG_atoi_s+0
	CALL       _atoi+0
	MOVLW      128
	XORLW      3
	MOVWF      R2+0
	MOVLW      128
	XORWF      R0+1, 0
	SUBWF      R2+0, 0
	BTFSS      STATUS+0, 2
	GOTO       L__ValidateInput77
	MOVF       R0+0, 0
	SUBLW      255
L__ValidateInput77:
	BTFSC      STATUS+0, 0
	GOTO       L_ValidateInput21
	MOVF       _userCode+0, 0
	MOVWF      FARG_atoi_s+0
	CALL       _atoi+0
	MOVLW      0
	XORWF      R0+1, 0
	BTFSS      STATUS+0, 2
	GOTO       L__ValidateInput78
	MOVLW      0
	XORWF      R0+0, 0
L__ValidateInput78:
	BTFSC      STATUS+0, 2
	GOTO       L_ValidateInput21
L__ValidateInput65:
;MyProject.c,97 :: 		return 0;
	CLRF       R0+0
	CLRF       R0+1
	GOTO       L_end_ValidateInput
;MyProject.c,98 :: 		}else{
L_ValidateInput21:
;MyProject.c,99 :: 		Lcd_Out(1,1,"DEBUG");
	MOVLW      1
	MOVWF      FARG_Lcd_Out_row+0
	MOVLW      1
	MOVWF      FARG_Lcd_Out_column+0
	MOVLW      ?lstr11_MyProject+0
	MOVWF      FARG_Lcd_Out_text+0
	CALL       _Lcd_Out+0
;MyProject.c,100 :: 		return 1;
	MOVLW      1
	MOVWF      R0+0
	MOVLW      0
	MOVWF      R0+1
	GOTO       L_end_ValidateInput
;MyProject.c,102 :: 		}else{
L_ValidateInput4:
;MyProject.c,103 :: 		return 0;
	CLRF       R0+0
	CLRF       R0+1
;MyProject.c,108 :: 		}
L_end_ValidateInput:
	RETURN
; end of _ValidateInput

_init:

;MyProject.c,109 :: 		void init(){
;MyProject.c,110 :: 		Lcd_Init();
	CALL       _Lcd_Init+0
;MyProject.c,111 :: 		Lcd_Cmd(_LCD_CURSOR_OFF);
	MOVLW      12
	MOVWF      FARG_Lcd_Cmd_out_char+0
	CALL       _Lcd_Cmd+0
;MyProject.c,112 :: 		Lcd_Cmd(_LCD_CLEAR);
	MOVLW      1
	MOVWF      FARG_Lcd_Cmd_out_char+0
	CALL       _Lcd_Cmd+0
;MyProject.c,113 :: 		C1ON_bit = 0;
	BCF        C1ON_bit+0, BitPos(C1ON_bit+0)
;MyProject.c,114 :: 		C2ON_bit = 0;
	BCF        C2ON_bit+0, BitPos(C2ON_bit+0)
;MyProject.c,115 :: 		UART1_Init(9600);
	MOVLW      51
	MOVWF      SPBRG+0
	BSF        TXSTA+0, 2
	CALL       _UART1_Init+0
;MyProject.c,116 :: 		Delay_ms(5);
	MOVLW      13
	MOVWF      R12+0
	MOVLW      251
	MOVWF      R13+0
L_init24:
	DECFSZ     R13+0, 1
	GOTO       L_init24
	DECFSZ     R12+0, 1
	GOTO       L_init24
	NOP
	NOP
;MyProject.c,117 :: 		addr=0x00;
	CLRF       _addr+0
	CLRF       _addr+1
;MyProject.c,118 :: 		j=0;
	CLRF       _j+0
	CLRF       _j+1
;MyProject.c,119 :: 		}
L_end_init:
	RETURN
; end of _init

_ADDOption:

;MyProject.c,120 :: 		void ADDOption(){
;MyProject.c,121 :: 		Lcd_Cmd(_LCD_CLEAR);
	MOVLW      1
	MOVWF      FARG_Lcd_Cmd_out_char+0
	CALL       _Lcd_Cmd+0
;MyProject.c,122 :: 		if(strcmp(strstr(string,"ADD"),"ADD")==0)
	MOVLW      _string+0
	MOVWF      FARG_strstr_s1+0
	MOVLW      ?lstr12_MyProject+0
	MOVWF      FARG_strstr_s2+0
	CALL       _strstr+0
	MOVF       R0+0, 0
	MOVWF      FARG_strcmp_s1+0
	MOVLW      ?lstr13_MyProject+0
	MOVWF      FARG_strcmp_s2+0
	CALL       _strcmp+0
	MOVLW      0
	XORWF      R0+1, 0
	BTFSS      STATUS+0, 2
	GOTO       L__ADDOption81
	MOVLW      0
	XORWF      R0+0, 0
L__ADDOption81:
	BTFSS      STATUS+0, 2
	GOTO       L_ADDOption25
;MyProject.c,125 :: 		Lcd_Out(2,1,strstr(string,"ADD"));
	MOVLW      _string+0
	MOVWF      FARG_strstr_s1+0
	MOVLW      ?lstr14_MyProject+0
	MOVWF      FARG_strstr_s2+0
	CALL       _strstr+0
	MOVF       R0+0, 0
	MOVWF      FARG_Lcd_Out_text+0
	MOVLW      2
	MOVWF      FARG_Lcd_Out_row+0
	MOVLW      1
	MOVWF      FARG_Lcd_Out_column+0
	CALL       _Lcd_Out+0
;MyProject.c,126 :: 		while(strcmp(strstr(string,"START"),"START")!=0)
L_ADDOption26:
	MOVLW      _string+0
	MOVWF      FARG_strstr_s1+0
	MOVLW      ?lstr15_MyProject+0
	MOVWF      FARG_strstr_s2+0
	CALL       _strstr+0
	MOVF       R0+0, 0
	MOVWF      FARG_strcmp_s1+0
	MOVLW      ?lstr16_MyProject+0
	MOVWF      FARG_strcmp_s2+0
	CALL       _strcmp+0
	MOVLW      0
	XORWF      R0+1, 0
	BTFSS      STATUS+0, 2
	GOTO       L__ADDOption82
	MOVLW      0
	XORWF      R0+0, 0
L__ADDOption82:
	BTFSC      STATUS+0, 2
	GOTO       L_ADDOption27
;MyProject.c,128 :: 		ReadFromUART();
	CALL       _ReadFromUART+0
;MyProject.c,132 :: 		if(strcmp(strstr(string,"START"),"START")==0)
	MOVLW      _string+0
	MOVWF      FARG_strstr_s1+0
	MOVLW      ?lstr17_MyProject+0
	MOVWF      FARG_strstr_s2+0
	CALL       _strstr+0
	MOVF       R0+0, 0
	MOVWF      FARG_strcmp_s1+0
	MOVLW      ?lstr18_MyProject+0
	MOVWF      FARG_strcmp_s2+0
	CALL       _strcmp+0
	MOVLW      0
	XORWF      R0+1, 0
	BTFSS      STATUS+0, 2
	GOTO       L__ADDOption83
	MOVLW      0
	XORWF      R0+0, 0
L__ADDOption83:
	BTFSS      STATUS+0, 2
	GOTO       L_ADDOption28
;MyProject.c,135 :: 		Lcd_Cmd(_LCD_CLEAR);
	MOVLW      1
	MOVWF      FARG_Lcd_Cmd_out_char+0
	CALL       _Lcd_Cmd+0
;MyProject.c,136 :: 		Lcd_Out(2,1,strstr(string,"START"));
	MOVLW      _string+0
	MOVWF      FARG_strstr_s1+0
	MOVLW      ?lstr19_MyProject+0
	MOVWF      FARG_strstr_s2+0
	CALL       _strstr+0
	MOVF       R0+0, 0
	MOVWF      FARG_Lcd_Out_text+0
	MOVLW      2
	MOVWF      FARG_Lcd_Out_row+0
	MOVLW      1
	MOVWF      FARG_Lcd_Out_column+0
	CALL       _Lcd_Out+0
;MyProject.c,137 :: 		memset(string,0,sizeof(string));
	MOVLW      _string+0
	MOVWF      FARG_memset_p1+0
	CLRF       FARG_memset_character+0
	MOVLW      16
	MOVWF      FARG_memset_n+0
	MOVLW      0
	MOVWF      FARG_memset_n+1
	CALL       _memset+0
;MyProject.c,138 :: 		Lcd_Cmd(_LCD_CLEAR);
	MOVLW      1
	MOVWF      FARG_Lcd_Cmd_out_char+0
	CALL       _Lcd_Cmd+0
;MyProject.c,140 :: 		WriteInEEPROM();
	CALL       _WriteInEEPROM+0
;MyProject.c,142 :: 		break;
	GOTO       L_ADDOption27
;MyProject.c,143 :: 		}
L_ADDOption28:
;MyProject.c,147 :: 		}
	GOTO       L_ADDOption26
L_ADDOption27:
;MyProject.c,150 :: 		}
L_ADDOption25:
;MyProject.c,151 :: 		}
L_end_ADDOption:
	RETURN
; end of _ADDOption

_WriteInEEPROM:

;MyProject.c,152 :: 		void WriteInEEPROM(){
;MyProject.c,153 :: 		if(AddressVal()!=0){
	CALL       _AddressVal+0
	MOVLW      0
	XORWF      R0+1, 0
	BTFSS      STATUS+0, 2
	GOTO       L__WriteInEEPROM85
	MOVLW      0
	XORWF      R0+0, 0
L__WriteInEEPROM85:
	BTFSC      STATUS+0, 2
	GOTO       L_WriteInEEPROM29
;MyProject.c,154 :: 		addr+=AddressVal();
	CALL       _AddressVal+0
	MOVF       R0+0, 0
	ADDWF      _addr+0, 1
	MOVF       R0+1, 0
	BTFSC      STATUS+0, 0
	ADDLW      1
	ADDWF      _addr+1, 1
;MyProject.c,156 :: 		ReadFromUART();
	CALL       _ReadFromUART+0
;MyProject.c,157 :: 		if( ValidateInput()!=0){
	CALL       _ValidateInput+0
	MOVLW      0
	XORWF      R0+1, 0
	BTFSS      STATUS+0, 2
	GOTO       L__WriteInEEPROM86
	MOVLW      0
	XORWF      R0+0, 0
L__WriteInEEPROM86:
	BTFSC      STATUS+0, 2
	GOTO       L_WriteInEEPROM30
;MyProject.c,158 :: 		for(j=0; j<=15; j++)
	CLRF       _j+0
	CLRF       _j+1
L_WriteInEEPROM31:
	MOVLW      128
	MOVWF      R0+0
	MOVLW      128
	XORWF      _j+1, 0
	SUBWF      R0+0, 0
	BTFSS      STATUS+0, 2
	GOTO       L__WriteInEEPROM87
	MOVF       _j+0, 0
	SUBLW      15
L__WriteInEEPROM87:
	BTFSS      STATUS+0, 0
	GOTO       L_WriteInEEPROM32
;MyProject.c,160 :: 		EEPROM_Write(addr + j,string[j]);
	MOVF       _j+0, 0
	ADDWF      _addr+0, 0
	MOVWF      FARG_EEPROM_Write_Address+0
	MOVF       _j+0, 0
	ADDLW      _string+0
	MOVWF      FSR
	MOVF       INDF+0, 0
	MOVWF      FARG_EEPROM_Write_data_+0
	CALL       _EEPROM_Write+0
;MyProject.c,158 :: 		for(j=0; j<=15; j++)
	INCF       _j+0, 1
	BTFSC      STATUS+0, 2
	INCF       _j+1, 1
;MyProject.c,161 :: 		}
	GOTO       L_WriteInEEPROM31
L_WriteInEEPROM32:
;MyProject.c,162 :: 		numUsers=NumOfUsers();
	CALL       _NumOfUsers+0
	MOVF       R0+0, 0
	MOVWF      _numUsers+0
	MOVF       R0+1, 0
	MOVWF      _numUsers+1
;MyProject.c,163 :: 		numUsers++;
	INCF       R0+0, 1
	BTFSC      STATUS+0, 2
	INCF       R0+1, 1
	MOVF       R0+0, 0
	MOVWF      _numUsers+0
	MOVF       R0+1, 0
	MOVWF      _numUsers+1
;MyProject.c,165 :: 		EEPROM_Write(0x00,numUsers);
	CLRF       FARG_EEPROM_Write_Address+0
	MOVF       R0+0, 0
	MOVWF      FARG_EEPROM_Write_data_+0
	CALL       _EEPROM_Write+0
;MyProject.c,166 :: 		Lcd_Out(1,1,"OK");
	MOVLW      1
	MOVWF      FARG_Lcd_Out_row+0
	MOVLW      1
	MOVWF      FARG_Lcd_Out_column+0
	MOVLW      ?lstr20_MyProject+0
	MOVWF      FARG_Lcd_Out_text+0
	CALL       _Lcd_Out+0
;MyProject.c,168 :: 		}else{
	GOTO       L_WriteInEEPROM34
L_WriteInEEPROM30:
;MyProject.c,169 :: 		Lcd_Out(1,1,"EROR");
	MOVLW      1
	MOVWF      FARG_Lcd_Out_row+0
	MOVLW      1
	MOVWF      FARG_Lcd_Out_column+0
	MOVLW      ?lstr21_MyProject+0
	MOVWF      FARG_Lcd_Out_text+0
	CALL       _Lcd_Out+0
;MyProject.c,171 :: 		}
L_WriteInEEPROM34:
;MyProject.c,172 :: 		}
L_WriteInEEPROM29:
;MyProject.c,173 :: 		}
L_end_WriteInEEPROM:
	RETURN
; end of _WriteInEEPROM

_NumOfUsers:

;MyProject.c,174 :: 		int NumOfUsers(){
;MyProject.c,175 :: 		ch = EEPROM_Read(0x10);
	MOVLW      16
	MOVWF      FARG_EEPROM_Read_Address+0
	CALL       _EEPROM_Read+0
	MOVF       R0+0, 0
	MOVWF      _ch+0
;MyProject.c,176 :: 		return atoi(ch);
	MOVF       R0+0, 0
	MOVWF      FARG_atoi_s+0
	CALL       _atoi+0
;MyProject.c,178 :: 		}
L_end_NumOfUsers:
	RETURN
; end of _NumOfUsers

_CheckEEPROM:

;MyProject.c,179 :: 		int CheckEEPROM(){
;MyProject.c,180 :: 		users=NumOfUsers();
	CALL       _NumOfUsers+0
	MOVF       R0+0, 0
	MOVWF      _users+0
;MyProject.c,181 :: 		if(users!=255){
	MOVF       R0+0, 0
	XORLW      255
	BTFSC      STATUS+0, 2
	GOTO       L_CheckEEPROM35
;MyProject.c,182 :: 		return 1;
	MOVLW      1
	MOVWF      R0+0
	MOVLW      0
	MOVWF      R0+1
	GOTO       L_end_CheckEEPROM
;MyProject.c,184 :: 		}else{
L_CheckEEPROM35:
;MyProject.c,185 :: 		return 0;
	CLRF       R0+0
	CLRF       R0+1
;MyProject.c,188 :: 		}
L_end_CheckEEPROM:
	RETURN
; end of _CheckEEPROM

_NextUserNum:

;MyProject.c,189 :: 		int NextUserNum(){
;MyProject.c,190 :: 		if(CheckEEPROM()){
	CALL       _CheckEEPROM+0
	MOVF       R0+0, 0
	IORWF      R0+1, 0
	BTFSC      STATUS+0, 2
	GOTO       L_NextUserNum37
;MyProject.c,191 :: 		return NumOfUsers()*16;
	CALL       _NumOfUsers+0
	MOVLW      4
	MOVWF      R4+0
	MOVF       R0+0, 0
	MOVWF      R2+0
	MOVF       R0+1, 0
	MOVWF      R2+1
	MOVF       R4+0, 0
L__NextUserNum91:
	BTFSC      STATUS+0, 2
	GOTO       L__NextUserNum92
	RLF        R2+0, 1
	RLF        R2+1, 1
	BCF        R2+0, 0
	ADDLW      255
	GOTO       L__NextUserNum91
L__NextUserNum92:
	MOVF       R2+0, 0
	MOVWF      R0+0
	MOVF       R2+1, 0
	MOVWF      R0+1
	GOTO       L_end_NextUserNum
;MyProject.c,192 :: 		}else{
L_NextUserNum37:
;MyProject.c,193 :: 		return 16;
	MOVLW      16
	MOVWF      R0+0
	MOVLW      0
	MOVWF      R0+1
;MyProject.c,195 :: 		}
L_end_NextUserNum:
	RETURN
; end of _NextUserNum

_ValidateUserNum:

;MyProject.c,197 :: 		int ValidateUserNum( int num)  {
;MyProject.c,198 :: 		if(num>=160){
	MOVLW      128
	XORWF      FARG_ValidateUserNum_num+1, 0
	MOVWF      R0+0
	MOVLW      128
	SUBWF      R0+0, 0
	BTFSS      STATUS+0, 2
	GOTO       L__ValidateUserNum94
	MOVLW      160
	SUBWF      FARG_ValidateUserNum_num+0, 0
L__ValidateUserNum94:
	BTFSS      STATUS+0, 0
	GOTO       L_ValidateUserNum39
;MyProject.c,199 :: 		return 0;
	CLRF       R0+0
	CLRF       R0+1
	GOTO       L_end_ValidateUserNum
;MyProject.c,200 :: 		}else{
L_ValidateUserNum39:
;MyProject.c,201 :: 		return 1;
	MOVLW      1
	MOVWF      R0+0
	MOVLW      0
	MOVWF      R0+1
;MyProject.c,203 :: 		}
L_end_ValidateUserNum:
	RETURN
; end of _ValidateUserNum

_AddressVal:

;MyProject.c,204 :: 		int AddressVal(){
;MyProject.c,205 :: 		if(ValidateUserNum(NextUserNum())){
	CALL       _NextUserNum+0
	MOVF       R0+0, 0
	MOVWF      FARG_ValidateUserNum_num+0
	MOVF       R0+1, 0
	MOVWF      FARG_ValidateUserNum_num+1
	CALL       _ValidateUserNum+0
	MOVF       R0+0, 0
	IORWF      R0+1, 0
	BTFSC      STATUS+0, 2
	GOTO       L_AddressVal41
;MyProject.c,206 :: 		return NextUserNum()+16;
	CALL       _NextUserNum+0
	MOVLW      16
	ADDWF      R0+0, 1
	BTFSC      STATUS+0, 0
	INCF       R0+1, 1
	GOTO       L_end_AddressVal
;MyProject.c,207 :: 		}else{
L_AddressVal41:
;MyProject.c,208 :: 		return 0;
	CLRF       R0+0
	CLRF       R0+1
;MyProject.c,210 :: 		}
L_end_AddressVal:
	RETURN
; end of _AddressVal

_ReadFromUART:

;MyProject.c,211 :: 		void ReadFromUART(){
;MyProject.c,212 :: 		i=0;
	CLRF       _i+0
	CLRF       _i+1
;MyProject.c,213 :: 		while(1)         {
L_ReadFromUART43:
;MyProject.c,214 :: 		Delay_ms(10);
	MOVLW      26
	MOVWF      R12+0
	MOVLW      248
	MOVWF      R13+0
L_ReadFromUART45:
	DECFSZ     R13+0, 1
	GOTO       L_ReadFromUART45
	DECFSZ     R12+0, 1
	GOTO       L_ReadFromUART45
	NOP
;MyProject.c,215 :: 		if (UART1_Data_Ready())
	CALL       _UART1_Data_Ready+0
	MOVF       R0+0, 0
	BTFSC      STATUS+0, 2
	GOTO       L_ReadFromUART46
;MyProject.c,217 :: 		uart_rd = UART1_Read();
	CALL       _UART1_Read+0
	MOVF       R0+0, 0
	MOVWF      _uart_rd+0
;MyProject.c,218 :: 		string[i]=uart_rd;
	MOVF       _i+0, 0
	ADDLW      _string+0
	MOVWF      FSR
	MOVF       R0+0, 0
	MOVWF      INDF+0
;MyProject.c,219 :: 		i++;
	INCF       _i+0, 1
	BTFSC      STATUS+0, 2
	INCF       _i+1, 1
;MyProject.c,220 :: 		}
L_ReadFromUART46:
;MyProject.c,221 :: 		Delay_ms(10);
	MOVLW      26
	MOVWF      R12+0
	MOVLW      248
	MOVWF      R13+0
L_ReadFromUART47:
	DECFSZ     R13+0, 1
	GOTO       L_ReadFromUART47
	DECFSZ     R12+0, 1
	GOTO       L_ReadFromUART47
	NOP
;MyProject.c,222 :: 		if (!UART1_Data_Ready()&&i!=0)
	CALL       _UART1_Data_Ready+0
	MOVF       R0+0, 0
	BTFSS      STATUS+0, 2
	GOTO       L_ReadFromUART50
	MOVLW      0
	XORWF      _i+1, 0
	BTFSS      STATUS+0, 2
	GOTO       L__ReadFromUART97
	MOVLW      0
	XORWF      _i+0, 0
L__ReadFromUART97:
	BTFSC      STATUS+0, 2
	GOTO       L_ReadFromUART50
L__ReadFromUART68:
;MyProject.c,225 :: 		break;
	GOTO       L_ReadFromUART44
;MyProject.c,228 :: 		}
L_ReadFromUART50:
;MyProject.c,229 :: 		}
	GOTO       L_ReadFromUART43
L_ReadFromUART44:
;MyProject.c,230 :: 		}
L_end_ReadFromUART:
	RETURN
; end of _ReadFromUART

_findUserId:

;MyProject.c,231 :: 		void findUserId(){
;MyProject.c,232 :: 		memset(string,0,sizeof(string));
	MOVLW      _string+0
	MOVWF      FARG_memset_p1+0
	CLRF       FARG_memset_character+0
	MOVLW      16
	MOVWF      FARG_memset_n+0
	MOVLW      0
	MOVWF      FARG_memset_n+1
	CALL       _memset+0
;MyProject.c,233 :: 		ReadFromUART();
	CALL       _ReadFromUART+0
;MyProject.c,234 :: 		memset(text,0,sizeof(text));
	MOVLW      _text+0
	MOVWF      FARG_memset_p1+0
	CLRF       FARG_memset_character+0
	MOVLW      16
	MOVWF      FARG_memset_n+0
	MOVLW      0
	MOVWF      FARG_memset_n+1
	CALL       _memset+0
;MyProject.c,235 :: 		addr=0x10;
	MOVLW      16
	MOVWF      _addr+0
	MOVLW      0
	MOVWF      _addr+1
;MyProject.c,236 :: 		for(i-0;i<10;i++){
L_findUserId51:
	MOVLW      128
	XORWF      _i+1, 0
	MOVWF      R0+0
	MOVLW      128
	SUBWF      R0+0, 0
	BTFSS      STATUS+0, 2
	GOTO       L__findUserId99
	MOVLW      10
	SUBWF      _i+0, 0
L__findUserId99:
	BTFSC      STATUS+0, 0
	GOTO       L_findUserId52
;MyProject.c,237 :: 		for(j=0;j<=15;j++)
	CLRF       _j+0
	CLRF       _j+1
L_findUserId54:
	MOVLW      128
	MOVWF      R0+0
	MOVLW      128
	XORWF      _j+1, 0
	SUBWF      R0+0, 0
	BTFSS      STATUS+0, 2
	GOTO       L__findUserId100
	MOVF       _j+0, 0
	SUBLW      15
L__findUserId100:
	BTFSS      STATUS+0, 0
	GOTO       L_findUserId55
;MyProject.c,239 :: 		ch = EEPROM_Read(addr+j);
	MOVF       _j+0, 0
	ADDWF      _addr+0, 0
	MOVWF      FARG_EEPROM_Read_Address+0
	CALL       _EEPROM_Read+0
	MOVF       R0+0, 0
	MOVWF      _ch+0
;MyProject.c,240 :: 		text[j]=ch;
	MOVF       _j+0, 0
	ADDLW      _text+0
	MOVWF      FSR
	MOVF       R0+0, 0
	MOVWF      INDF+0
;MyProject.c,237 :: 		for(j=0;j<=15;j++)
	INCF       _j+0, 1
	BTFSC      STATUS+0, 2
	INCF       _j+1, 1
;MyProject.c,241 :: 		}
	GOTO       L_findUserId54
L_findUserId55:
;MyProject.c,242 :: 		if(strcmp(strstr(string,text),text)==0){
	MOVLW      _string+0
	MOVWF      FARG_strstr_s1+0
	MOVLW      _text+0
	MOVWF      FARG_strstr_s2+0
	CALL       _strstr+0
	MOVF       R0+0, 0
	MOVWF      FARG_strcmp_s1+0
	MOVLW      _text+0
	MOVWF      FARG_strcmp_s2+0
	CALL       _strcmp+0
	MOVLW      0
	XORWF      R0+1, 0
	BTFSS      STATUS+0, 2
	GOTO       L__findUserId101
	MOVLW      0
	XORWF      R0+0, 0
L__findUserId101:
	BTFSS      STATUS+0, 2
	GOTO       L_findUserId57
;MyProject.c,243 :: 		EraseUser(addr);
	MOVF       _addr+0, 0
	MOVWF      FARG_EraseUser_address+0
	MOVF       _addr+1, 0
	MOVWF      FARG_EraseUser_address+1
	CALL       _EraseUser+0
;MyProject.c,245 :: 		}
L_findUserId57:
;MyProject.c,246 :: 		addr+=16;
	MOVLW      16
	ADDWF      _addr+0, 1
	BTFSC      STATUS+0, 0
	INCF       _addr+1, 1
;MyProject.c,236 :: 		for(i-0;i<10;i++){
	INCF       _i+0, 1
	BTFSC      STATUS+0, 2
	INCF       _i+1, 1
;MyProject.c,247 :: 		}
	GOTO       L_findUserId51
L_findUserId52:
;MyProject.c,250 :: 		}
L_end_findUserId:
	RETURN
; end of _findUserId

_EraseUser:

;MyProject.c,251 :: 		void EraseUser(int address){
;MyProject.c,252 :: 		memset(text,255,sizeof(text));
	MOVLW      _text+0
	MOVWF      FARG_memset_p1+0
	MOVLW      255
	MOVWF      FARG_memset_character+0
	MOVLW      16
	MOVWF      FARG_memset_n+0
	MOVLW      0
	MOVWF      FARG_memset_n+1
	CALL       _memset+0
;MyProject.c,253 :: 		for(j=0; j<=15; j++)
	CLRF       _j+0
	CLRF       _j+1
L_EraseUser58:
	MOVLW      128
	MOVWF      R0+0
	MOVLW      128
	XORWF      _j+1, 0
	SUBWF      R0+0, 0
	BTFSS      STATUS+0, 2
	GOTO       L__EraseUser103
	MOVF       _j+0, 0
	SUBLW      15
L__EraseUser103:
	BTFSS      STATUS+0, 0
	GOTO       L_EraseUser59
;MyProject.c,255 :: 		EEPROM_Write(addr + j,text[j]);
	MOVF       _j+0, 0
	ADDWF      _addr+0, 0
	MOVWF      FARG_EEPROM_Write_Address+0
	MOVF       _j+0, 0
	ADDLW      _text+0
	MOVWF      FSR
	MOVF       INDF+0, 0
	MOVWF      FARG_EEPROM_Write_data_+0
	CALL       _EEPROM_Write+0
;MyProject.c,253 :: 		for(j=0; j<=15; j++)
	INCF       _j+0, 1
	BTFSC      STATUS+0, 2
	INCF       _j+1, 1
;MyProject.c,256 :: 		}
	GOTO       L_EraseUser58
L_EraseUser59:
;MyProject.c,257 :: 		numUsers--;
	MOVLW      1
	SUBWF      _numUsers+0, 1
	BTFSS      STATUS+0, 0
	DECF       _numUsers+1, 1
;MyProject.c,258 :: 		EEPROM_Write(0x00,numUsers);
	CLRF       FARG_EEPROM_Write_Address+0
	MOVF       _numUsers+0, 0
	MOVWF      FARG_EEPROM_Write_data_+0
	CALL       _EEPROM_Write+0
;MyProject.c,259 :: 		}
L_end_EraseUser:
	RETURN
; end of _EraseUser

_EraseOption:

;MyProject.c,260 :: 		void EraseOption(){
;MyProject.c,261 :: 		if(strcmp(strstr(string,"ERASE"),"ERASE")==0){
	MOVLW      _string+0
	MOVWF      FARG_strstr_s1+0
	MOVLW      ?lstr22_MyProject+0
	MOVWF      FARG_strstr_s2+0
	CALL       _strstr+0
	MOVF       R0+0, 0
	MOVWF      FARG_strcmp_s1+0
	MOVLW      ?lstr23_MyProject+0
	MOVWF      FARG_strcmp_s2+0
	CALL       _strcmp+0
	MOVLW      0
	XORWF      R0+1, 0
	BTFSS      STATUS+0, 2
	GOTO       L__EraseOption105
	MOVLW      0
	XORWF      R0+0, 0
L__EraseOption105:
	BTFSS      STATUS+0, 2
	GOTO       L_EraseOption61
;MyProject.c,262 :: 		Lcd_Out(2,1,strstr(string,"ERASE"));
	MOVLW      _string+0
	MOVWF      FARG_strstr_s1+0
	MOVLW      ?lstr24_MyProject+0
	MOVWF      FARG_strstr_s2+0
	CALL       _strstr+0
	MOVF       R0+0, 0
	MOVWF      FARG_Lcd_Out_text+0
	MOVLW      2
	MOVWF      FARG_Lcd_Out_row+0
	MOVLW      1
	MOVWF      FARG_Lcd_Out_column+0
	CALL       _Lcd_Out+0
;MyProject.c,263 :: 		while(strcmp(strstr(string,"START"),"START")!=0){
L_EraseOption62:
	MOVLW      _string+0
	MOVWF      FARG_strstr_s1+0
	MOVLW      ?lstr25_MyProject+0
	MOVWF      FARG_strstr_s2+0
	CALL       _strstr+0
	MOVF       R0+0, 0
	MOVWF      FARG_strcmp_s1+0
	MOVLW      ?lstr26_MyProject+0
	MOVWF      FARG_strcmp_s2+0
	CALL       _strcmp+0
	MOVLW      0
	XORWF      R0+1, 0
	BTFSS      STATUS+0, 2
	GOTO       L__EraseOption106
	MOVLW      0
	XORWF      R0+0, 0
L__EraseOption106:
	BTFSC      STATUS+0, 2
	GOTO       L_EraseOption63
;MyProject.c,264 :: 		ReadFromUART();
	CALL       _ReadFromUART+0
;MyProject.c,266 :: 		if(strcmp(strstr(string,"START"),"START")==0){
	MOVLW      _string+0
	MOVWF      FARG_strstr_s1+0
	MOVLW      ?lstr27_MyProject+0
	MOVWF      FARG_strstr_s2+0
	CALL       _strstr+0
	MOVF       R0+0, 0
	MOVWF      FARG_strcmp_s1+0
	MOVLW      ?lstr28_MyProject+0
	MOVWF      FARG_strcmp_s2+0
	CALL       _strcmp+0
	MOVLW      0
	XORWF      R0+1, 0
	BTFSS      STATUS+0, 2
	GOTO       L__EraseOption107
	MOVLW      0
	XORWF      R0+0, 0
L__EraseOption107:
	BTFSS      STATUS+0, 2
	GOTO       L_EraseOption64
;MyProject.c,268 :: 		Lcd_Cmd(_LCD_CLEAR);
	MOVLW      1
	MOVWF      FARG_Lcd_Cmd_out_char+0
	CALL       _Lcd_Cmd+0
;MyProject.c,269 :: 		Lcd_Out(2,1,strstr(string,"START"));
	MOVLW      _string+0
	MOVWF      FARG_strstr_s1+0
	MOVLW      ?lstr29_MyProject+0
	MOVWF      FARG_strstr_s2+0
	CALL       _strstr+0
	MOVF       R0+0, 0
	MOVWF      FARG_Lcd_Out_text+0
	MOVLW      2
	MOVWF      FARG_Lcd_Out_row+0
	MOVLW      1
	MOVWF      FARG_Lcd_Out_column+0
	CALL       _Lcd_Out+0
;MyProject.c,270 :: 		findUserId();
	CALL       _findUserId+0
;MyProject.c,271 :: 		}
L_EraseOption64:
;MyProject.c,272 :: 		}
	GOTO       L_EraseOption62
L_EraseOption63:
;MyProject.c,273 :: 		}
L_EraseOption61:
;MyProject.c,276 :: 		}
L_end_EraseOption:
	RETURN
; end of _EraseOption
